; Function Attrs: mustprogress uwtable
define noundef signext range(i8 0, 2) i8 @_ZNK6icu_7719CharsetRecog_2022CN5matchEPNS_9InputTextEPNS_12CharsetMatchE(ptr noundef nonnull align 8 dereferenceable(8) %0, ptr noundef %1, ptr noundef %2) unnamed_addr #5 align 2 {
  %4 = load ptr, ptr %1, align 8, !tbaa !9
  %5 = getelementptr inbounds nuw i8, ptr %1, i64 8
  %6 = load i32, ptr %5, align 8, !tbaa !15
  %7 = icmp sgt i32 %6, 0
  br i1 %7, label %.lr.ph83.split.us.i, label %_ZNK6icu_7717CharsetRecog_202210match_2022EPKhiPA5_S1_i.exit

.lr.ph83.split.us.i:                              ; preds = %3, %23
  %.04580.us.i = phi i32 [ %24, %23 ], [ 0, %3 ]
  %.04779.us.i = phi i32 [ %.148.us.i, %23 ], [ 0, %3 ]
  %.04978.us.i = phi i32 [ %.251.us.i, %23 ], [ 0, %3 ]
  %.05277.us.i = phi i32 [ %.456.us.i, %23 ], [ 0, %3 ]
  %8 = sext i32 %.04580.us.i to i64
  %9 = getelementptr inbounds i8, ptr %4, i64 %8
  %10 = load i8, ptr %9, align 1, !tbaa !3
  %11 = icmp eq i8 %10, 27
  br i1 %11, label %.preheader72.us.i, label %12

12:                                               ; preds = %._crit_edge.us.i, %.lr.ph83.split.us.i
  %.150.us.i = phi i32 [ %31, %._crit_edge.us.i ], [ %.04978.us.i, %.lr.ph83.split.us.i ]
  %13 = and i8 %10, -2
  %switch66.us.i = icmp eq i8 %13, 14
  %14 = zext i1 %switch66.us.i to i32
  %spec.select.us.i = add nsw i32 %.04779.us.i, %14
  br label %23

15:                                               ; preds = %.preheader72.us.i, %.loopexit.us.i
  %indvars.iv101.i = phi i64 [ 0, %.preheader72.us.i ], [ %indvars.iv.next102.i, %.loopexit.us.i ]
  %16 = getelementptr inbounds nuw [5 x i8], ptr @_ZN6icu_77L22escapeSequences_2022CNE, i64 %indvars.iv101.i
  %17 = tail call i64 @strlen(ptr noundef nonnull readonly dereferenceable(1) %16) #10
  %18 = trunc i64 %17 to i32
  %.not.us.i = icmp slt i32 %30, %18
  br i1 %.not.us.i, label %.loopexit.us.i, label %.preheader.us.i

19:                                               ; preds = %.lr.ph.us.i
  %indvars.iv.next97.i = add nuw nsw i64 %indvars.iv96.i, 1
  %exitcond100.not.i = icmp eq i64 %indvars.iv.next97.i, %wide.trip.count99.i
  br i1 %exitcond100.not.i, label %.thread.us.i, label %.lr.ph.us.i, !llvm.loop !6

.thread.us.i:                                     ; preds = %.preheader.us.i, %19
  %20 = add nsw i32 %.05277.us.i, 1
  %21 = add nsw i32 %.04580.us.i, -1
  %22 = add i32 %21, %18
  br label %23

23:                                               ; preds = %.thread.us.i, %12
  %.456.us.i = phi i32 [ %.05277.us.i, %12 ], [ %20, %.thread.us.i ]
  %.251.us.i = phi i32 [ %.150.us.i, %12 ], [ %.04978.us.i, %.thread.us.i ]
  %.148.us.i = phi i32 [ %spec.select.us.i, %12 ], [ %.04779.us.i, %.thread.us.i ]
  %.4.us.i = phi i32 [ %.04580.us.i, %12 ], [ %22, %.thread.us.i ]
  %24 = add nsw i32 %.4.us.i, 1
  %25 = icmp slt i32 %24, %6
  br i1 %25, label %.lr.ph83.split.us.i, label %._crit_edge84.i, !llvm.loop !8

.lr.ph.us.i:                                      ; preds = %.lr.ph.us.preheader.i, %19
  %indvars.iv96.i = phi i64 [ 1, %.lr.ph.us.preheader.i ], [ %indvars.iv.next97.i, %19 ]
  %26 = getelementptr inbounds nuw i8, ptr %16, i64 %indvars.iv96.i
  %27 = load i8, ptr %26, align 1, !tbaa !3
  %gep.i = getelementptr i8, ptr %9, i64 %indvars.iv96.i
  %28 = load i8, ptr %gep.i, align 1, !tbaa !3
  %.not65.us.i = icmp eq i8 %27, %28
  br i1 %.not65.us.i, label %19, label %.loopexit.us.i

.loopexit.us.i:                                   ; preds = %.lr.ph.us.i, %15
  %indvars.iv.next102.i = add nuw nsw i64 %indvars.iv101.i, 1
  %exitcond105.not.i = icmp eq i64 %indvars.iv.next102.i, 11
  br i1 %exitcond105.not.i, label %._crit_edge.us.i, label %15

.preheader.us.i:                                  ; preds = %15
  %29 = icmp sgt i32 %18, 1
  br i1 %29, label %.lr.ph.us.preheader.i, label %.thread.us.i

.lr.ph.us.preheader.i:                            ; preds = %.preheader.us.i
  %wide.trip.count99.i = and i64 %17, 2147483647
  br label %.lr.ph.us.i

.preheader72.us.i:                                ; preds = %.lr.ph83.split.us.i
  %30 = sub nsw i32 %6, %.04580.us.i
  br label %15

._crit_edge.us.i:                                 ; preds = %.loopexit.us.i
  %31 = add nsw i32 %.04978.us.i, 1
  br label %12

._crit_edge84.i:                                  ; preds = %23
  %32 = icmp eq i32 %.456.us.i, 0
  br i1 %32, label %_ZNK6icu_7717CharsetRecog_202210match_2022EPKhiPA5_S1_i.exit, label %33

33:                                               ; preds = %._crit_edge84.i
  %reass.add.i = sub i32 %.456.us.i, %.251.us.i
  %reass.mul.i = mul i32 %reass.add.i, 100
  %34 = add nsw i32 %.251.us.i, %.456.us.i
  %35 = sdiv i32 %reass.mul.i, %34
  %36 = add nsw i32 %.148.us.i, %.456.us.i
  %37 = icmp slt i32 %36, 5
  %38 = sub nsw i32 5, %36
  %.neg64.i = mul i32 %38, -10
  %39 = select i1 %37, i32 %.neg64.i, i32 0
  %.046.i = add i32 %35, %39
  %spec.store.select.i = tail call i32 @llvm.smax.i32(i32 %.046.i, i32 0)
  br label %_ZNK6icu_7717CharsetRecog_202210match_2022EPKhiPA5_S1_i.exit

_ZNK6icu_7717CharsetRecog_202210match_2022EPKhiPA5_S1_i.exit: ; preds = %3, %._crit_edge84.i, %33
  %.044.i = phi i32 [ %spec.store.select.i, %33 ], [ 0, %._crit_edge84.i ], [ 0, %3 ]
  tail call void @_ZN6icu_7712CharsetMatch3setEPNS_9InputTextEPKNS_17CharsetRecognizerEiPKcS7_(ptr noundef nonnull align 8 dereferenceable(32) %2, ptr noundef nonnull %1, ptr noundef nonnull %0, i32 noundef %.044.i, ptr noundef null, ptr noundef null)
  %40 = icmp ne i32 %.044.i, 0
  %41 = zext i1 %40 to i8
  ret i8 %41
}